; Function Attrs: nounwind uwtable
define void @Aig_ManSupportsTest(ptr noundef %0) local_unnamed_addr #4 {
  %2 = tail call ptr @Aig_ManSupports(ptr noundef %0)
  %3 = getelementptr i8, ptr %2, i64 4
  %.val11.i = load i32, ptr %3, align 4, !tbaa !58
  %4 = icmp sgt i32 %.val11.i, 0
  %5 = getelementptr i8, ptr %2, i64 8
  %.val8.i = load ptr, ptr %5, align 8, !tbaa !18
  br i1 %4, label %.lr.ph.i, label %.critedge.i

.lr.ph.i:                                         ; preds = %1
  %6 = zext nneg i32 %.val11.i to i64
  br label %7

7:                                                ; preds = %14, %.lr.ph.i
  %indvars.iv.i = phi i64 [ 0, %.lr.ph.i ], [ %indvars.iv.next.i, %14 ]
  %8 = getelementptr inbounds nuw ptr, ptr %.val8.i, i64 %indvars.iv.i
  %9 = load ptr, ptr %8, align 8, !tbaa !18
  %.not.i = icmp eq ptr %9, null
  br i1 %.not.i, label %14, label %10

10:                                               ; preds = %7
  %11 = getelementptr inbounds nuw i8, ptr %9, i64 8
  %12 = load ptr, ptr %11, align 8, !tbaa !15
  %.not.i.i = icmp eq ptr %12, null
  br i1 %.not.i.i, label %Vec_PtrFree.exit.i, label %13

13:                                               ; preds = %10
  tail call void @free(ptr noundef nonnull %12) #24
  br label %Vec_PtrFree.exit.i

Vec_PtrFree.exit.i:                               ; preds = %13, %10
  tail call void @free(ptr noundef nonnull %9) #24
  br label %14

14:                                               ; preds = %Vec_PtrFree.exit.i, %7
  %indvars.iv.next.i = add nuw nsw i64 %indvars.iv.i, 1
  %exitcond.not = icmp eq i64 %indvars.iv.next.i, %6
  br i1 %exitcond.not, label %.critedge.i.thread, label %7, !llvm.loop !63

.critedge.i:                                      ; preds = %1
  %.not.i9.i = icmp eq ptr %.val8.i, null
  br i1 %.not.i9.i, label %Vec_VecFree.exit, label %.critedge.i.thread

.critedge.i.thread:                               ; preds = %14, %.critedge.i
  tail call void @free(ptr noundef nonnull %.val8.i) #24
  br label %Vec_VecFree.exit

Vec_VecFree.exit:                                 ; preds = %.critedge.i, %.critedge.i.thread
  tail call void @free(ptr noundef nonnull %2) #24
  ret void
}